; Function Attrs: uwtable
define noundef zeroext i1 @_ZTv0_n48_N3nix22FilteringInputAccessor10pathExistsERKNS_9CanonPathE(ptr noundef %0, ptr noundef nonnull align 8 dereferenceable(32) %1) unnamed_addr #6 align 2 personality ptr @__gxx_personality_v0 {
  %3 = alloca %"class.nix::CanonPath", align 8
  %4 = load ptr, ptr %0, align 8
  %5 = getelementptr inbounds i8, ptr %4, i64 -48
  %6 = load i64, ptr %5, align 8
  %7 = getelementptr inbounds i8, ptr %0, i64 %6
  call void @llvm.lifetime.start.p0(i64 32, ptr nonnull %3)
  %8 = load ptr, ptr %7, align 8
  %9 = getelementptr inbounds i8, ptr %8, i64 72
  %10 = load ptr, ptr %9, align 8
  %11 = tail call noundef zeroext i1 %10(ptr noundef nonnull align 8 dereferenceable(144) %7, ptr noundef nonnull align 8 dereferenceable(32) %1)
  br i1 %11, label %12, label %_ZN3nix22FilteringInputAccessor10pathExistsERKNS_9CanonPathE.exit

12:                                               ; preds = %2
  %13 = getelementptr inbounds i8, ptr %7, i64 64
  %14 = load ptr, ptr %13, align 8
  %15 = load ptr, ptr %14, align 8
  %16 = getelementptr i8, ptr %15, i64 -24
  %17 = load i64, ptr %16, align 8
  %18 = getelementptr inbounds i8, ptr %14, i64 %17
  %19 = getelementptr inbounds i8, ptr %7, i64 80
  call void @_ZNK3nix9CanonPathdvERKS0_(ptr dead_on_unwind nonnull writable sret(%"class.nix::CanonPath") align 8 %3, ptr noundef nonnull align 8 dereferenceable(32) %19, ptr noundef nonnull align 8 dereferenceable(32) %1)
  %20 = load ptr, ptr %18, align 8
  %21 = getelementptr inbounds i8, ptr %20, i64 32
  %22 = load ptr, ptr %21, align 8
  %23 = invoke noundef zeroext i1 %22(ptr noundef nonnull align 8 dereferenceable(80) %18, ptr noundef nonnull align 8 dereferenceable(32) %3)
          to label %24 unwind label %31

24:                                               ; preds = %12
  %25 = load ptr, ptr %3, align 8
  %26 = getelementptr inbounds i8, ptr %3, i64 16
  %27 = icmp eq ptr %25, %26
  br i1 %27, label %_ZNKSt7__cxx1112basic_stringIcSt11char_traitsIcESaIcEE11_M_is_localEv.exit.thread.i.i.i.i, label %_ZNKSt7__cxx1112basic_stringIcSt11char_traitsIcESaIcEE11_M_is_localEv.exit.i.i.i.i

_ZNKSt7__cxx1112basic_stringIcSt11char_traitsIcESaIcEE11_M_is_localEv.exit.thread.i.i.i.i: ; preds = %24
  %28 = getelementptr inbounds i8, ptr %3, i64 8
  %29 = load i64, ptr %28, align 8
  %30 = icmp ult i64 %29, 16
  call void @llvm.assume(i1 %30)
  br label %_ZN3nix9CanonPathD2Ev.exit.i

_ZNKSt7__cxx1112basic_stringIcSt11char_traitsIcESaIcEE11_M_is_localEv.exit.i.i.i.i: ; preds = %24
  call void @_ZdlPv(ptr noundef %25) #22
  br label %_ZN3nix9CanonPathD2Ev.exit.i

_ZN3nix9CanonPathD2Ev.exit.i:                     ; preds = %_ZNKSt7__cxx1112basic_stringIcSt11char_traitsIcESaIcEE11_M_is_localEv.exit.i.i.i.i, %_ZNKSt7__cxx1112basic_stringIcSt11char_traitsIcESaIcEE11_M_is_localEv.exit.thread.i.i.i.i
  call void @_ZNSaIcED2Ev(ptr noundef nonnull align 1 dereferenceable(1) %3) #21
  br label %_ZN3nix22FilteringInputAccessor10pathExistsERKNS_9CanonPathE.exit

31:                                               ; preds = %12
  %32 = landingpad { ptr, i32 }
          cleanup
  call void @_ZN3nix9CanonPathD2Ev(ptr noundef nonnull align 8 dereferenceable(32) %3) #21
  resume { ptr, i32 } %32

_ZN3nix22FilteringInputAccessor10pathExistsERKNS_9CanonPathE.exit: ; preds = %2, %_ZN3nix9CanonPathD2Ev.exit.i
  %33 = phi i1 [ %23, %_ZN3nix9CanonPathD2Ev.exit.i ], [ false, %2 ]
  call void @llvm.lifetime.end.p0(i64 32, ptr nonnull %3)
  ret i1 %33
}